target datalayout = "e-m:e-p270:32:32-p271:32:32-p272:64:64-i64:64-i128:128-f80:128-n8:16:32:64-S128"
target triple = "x86_64-pc-linux-gnu"

; Function Attrs: nounwind uwtable
define internal ptr @bu_short(ptr noundef %0, ptr noundef %1, ptr noundef %2) #0 {
  %4 = alloca ptr, align 8
  %5 = alloca ptr, align 8
  %6 = alloca ptr, align 8
  %7 = alloca i64, align 8
  %8 = alloca i64, align 8
  %9 = alloca ptr, align 8
  store ptr %0, ptr %4, align 8, !tbaa !8
  store ptr %1, ptr %5, align 8, !tbaa !43
  store ptr %2, ptr %6, align 8, !tbaa !49
  call void @llvm.lifetime.start.p0(i64 8, ptr %7) #8
  store i64 0, ptr %7, align 8, !tbaa !18
  call void @llvm.lifetime.start.p0(i64 8, ptr %8) #8
  store i64 2, ptr %8, align 8, !tbaa !18
  call void @llvm.lifetime.start.p0(i64 8, ptr %9) #8
  %10 = load ptr, ptr %5, align 8, !tbaa !43
  store ptr %10, ptr %9, align 8, !tbaa !43
  br label %11

11:                                               ; preds = %19, %3
  %12 = load i64, ptr %7, align 8, !tbaa !18
  %13 = shl i64 %12, 8
  %14 = load ptr, ptr %9, align 8, !tbaa !43
  %15 = getelementptr i8, ptr %14, i32 1
  store ptr %15, ptr %9, align 8, !tbaa !43
  %16 = load i8, ptr %14, align 1, !tbaa !32
  %17 = zext i8 %16 to i64
  %18 = or i64 %13, %17
  store i64 %18, ptr %7, align 8, !tbaa !18
  br label %19

19:                                               ; preds = %11
  %20 = load i64, ptr %8, align 8, !tbaa !18
  %21 = add i64 %20, -1
  store i64 %21, ptr %8, align 8, !tbaa !18
  %22 = icmp sgt i64 %21, 0
  br i1 %22, label %11, label %23, !llvm.loop !90

23:                                               ; preds = %19
  %24 = load i64, ptr %7, align 8, !tbaa !18
  %25 = xor i64 %24, 32768
  %26 = sub i64 %25, 32768
  store i64 %26, ptr %7, align 8, !tbaa !18
  %27 = load i64, ptr %7, align 8, !tbaa !18
  %28 = and i64 %27, 32768
  %29 = icmp ne i64 %28, 0
  br i1 %29, label %30, label %34

30:                                               ; preds = %23
  %31 = load i64, ptr %7, align 8, !tbaa !18
  %32 = xor i64 %31, -1
  %33 = sub i64 -1, %32
  br label %36

34:                                               ; preds = %23
  %35 = load i64, ptr %7, align 8, !tbaa !18
  br label %36

36:                                               ; preds = %34, %30
  %37 = phi i64 [ %33, %30 ], [ %35, %34 ]
  %38 = call ptr @PyLong_FromLong(i64 noundef %37)
  call void @llvm.lifetime.end.p0(i64 8, ptr %9) #8
  call void @llvm.lifetime.end.p0(i64 8, ptr %8) #8
  call void @llvm.lifetime.end.p0(i64 8, ptr %7) #8
  ret ptr %38
}